target datalayout = "e-m:e-p270:32:32-p271:32:32-p272:64:64-i64:64-i128:128-f80:128-n8:16:32:64-S128"
target triple = "x86_64-pc-linux-gnu"

; Function Attrs: inlinehint mustprogress nounwind uwtable
define internal noundef signext i8 @_ZL9U_FAILURE10UErrorCode(i32 noundef %0) #4 {
  %2 = alloca i32, align 4
  store i32 %0, ptr %2, align 4, !tbaa !19
  %3 = load i32, ptr %2, align 4, !tbaa !19
  %4 = icmp sgt i32 %3, 0
  %5 = zext i1 %4 to i8
  ret i8 %5
}

; Function Attrs: mustprogress uwtable
define noundef i32 @_ZNK6icu_7714IndianCalendar14getRelatedYearER10UErrorCode(ptr noundef nonnull align 8 dereferenceable(192) %0, ptr noundef nonnull align 4 dereferenceable(4) %1) unnamed_addr #0 align 2 {
  %3 = alloca i32, align 4
  %4 = alloca ptr, align 8
  %5 = alloca ptr, align 8
  %6 = alloca i32, align 4
  %7 = alloca i32, align 4
  store ptr %0, ptr %4, align 8, !tbaa !3
  store ptr %1, ptr %5, align 8, !tbaa !10
  %8 = load ptr, ptr %4, align 8
  call void @llvm.lifetime.start.p0(i64 4, ptr %6) #9
  %9 = load ptr, ptr %5, align 8, !tbaa !10
  %10 = call noundef i32 @_ZNK6icu_778Calendar3getE19UCalendarDateFieldsR10UErrorCode(ptr noundef nonnull align 8 dereferenceable(192) %8, i32 noundef 19, ptr noundef nonnull align 4 dereferenceable(4) %9)
  store i32 %10, ptr %6, align 4, !tbaa !17
  %11 = load ptr, ptr %5, align 8, !tbaa !10
  %12 = load i32, ptr %11, align 4, !tbaa !19
  %13 = call noundef signext i8 @_ZL9U_FAILURE10UErrorCode(i32 noundef %12)
  %14 = icmp ne i8 %13, 0
  br i1 %14, label %15, label %16

15:                                               ; preds = %2
  store i32 0, ptr %3, align 4
  store i32 1, ptr %7, align 4
  br label %24

16:                                               ; preds = %2
  %17 = load i32, ptr %6, align 4, !tbaa !17
  %18 = call signext i8 @uprv_add32_overflow_77(i32 noundef %17, i32 noundef 79, ptr noundef %6)
  %19 = icmp ne i8 %18, 0
  br i1 %19, label %20, label %22

20:                                               ; preds = %16
  %21 = load ptr, ptr %5, align 8, !tbaa !10
  store i32 1, ptr %21, align 4, !tbaa !19
  store i32 0, ptr %3, align 4
  store i32 1, ptr %7, align 4
  br label %24

22:                                               ; preds = %16
  %23 = load i32, ptr %6, align 4, !tbaa !17
  store i32 %23, ptr %3, align 4
  store i32 1, ptr %7, align 4
  br label %24

24:                                               ; preds = %22, %20, %15
  call void @llvm.lifetime.end.p0(i64 4, ptr %6) #9
  %25 = load i32, ptr %3, align 4
  ret i32 %25
}